; Function Attrs: mustprogress uwtable
define void @_ZN11MyTrenderer9getOutputEv(ptr dead_on_unwind noalias writable sret(%class.QString) align 8 %0, ptr noundef nonnull align 8 dereferenceable(288) %1) local_unnamed_addr #1 align 2 personality ptr @__gxx_personality_v0 {
  %3 = alloca %class.QString, align 8
  %4 = alloca %class.QString, align 8
  %5 = alloca %class.QString, align 8
  %6 = getelementptr inbounds i8, ptr %1, i64 256
  %7 = tail call noundef ptr @_ZN7QString16fromAscii_helperEPKci(ptr noundef nonnull @.str.18, i32 noundef 0)
  store ptr %7, ptr %3, align 8
  %8 = getelementptr inbounds i8, ptr %7, i64 16
  %9 = load i64, ptr %8, align 8, !noalias !53
  %10 = getelementptr inbounds i8, ptr %7, i64 %9
  %11 = getelementptr inbounds i8, ptr %7, i64 4
  %12 = load i32, ptr %11, align 4, !noalias !53
  invoke void @_ZN9QtPrivate16QStringList_joinEPK11QStringListPK5QChari(ptr dead_on_unwind writable sret(%class.QString) align 8 %0, ptr noundef nonnull %6, ptr noundef nonnull %10, i32 noundef %12)
          to label %_ZNK19QListSpecialMethodsI7QStringE4joinERKS0_.exit unwind label %31

_ZNK19QListSpecialMethodsI7QStringE4joinERKS0_.exit: ; preds = %2
  %13 = load atomic i32, ptr %7 monotonic, align 4
  switch i32 %13, label %_ZN9QtPrivate8RefCount5derefEv.exit.i [
    i32 0, label %_ZN9QtPrivate8RefCount5derefEv.exit.thread2.i
    i32 -1, label %_ZN7QStringD2Ev.exit
  ]

_ZN9QtPrivate8RefCount5derefEv.exit.i:            ; preds = %_ZNK19QListSpecialMethodsI7QStringE4joinERKS0_.exit
  %14 = atomicrmw sub ptr %7, i32 1 seq_cst, align 4
  %.not.i = icmp eq i32 %14, 1
  br i1 %.not.i, label %_ZN9QtPrivate8RefCount5derefEv.exit._ZN9QtPrivate8RefCount5derefEv.exit.thread2_crit_edge.i, label %_ZN7QStringD2Ev.exit

_ZN9QtPrivate8RefCount5derefEv.exit._ZN9QtPrivate8RefCount5derefEv.exit.thread2_crit_edge.i: ; preds = %_ZN9QtPrivate8RefCount5derefEv.exit.i
  %.pre.i = load ptr, ptr %3, align 8
  br label %_ZN9QtPrivate8RefCount5derefEv.exit.thread2.i

_ZN9QtPrivate8RefCount5derefEv.exit.thread2.i:    ; preds = %_ZN9QtPrivate8RefCount5derefEv.exit._ZN9QtPrivate8RefCount5derefEv.exit.thread2_crit_edge.i, %_ZNK19QListSpecialMethodsI7QStringE4joinERKS0_.exit
  %15 = phi ptr [ %.pre.i, %_ZN9QtPrivate8RefCount5derefEv.exit._ZN9QtPrivate8RefCount5derefEv.exit.thread2_crit_edge.i ], [ %7, %_ZNK19QListSpecialMethodsI7QStringE4joinERKS0_.exit ]
  tail call void @_ZN10QArrayData10deallocateEPS_mm(ptr noundef %15, i64 noundef 2, i64 noundef 8) #11
  br label %_ZN7QStringD2Ev.exit

_ZN7QStringD2Ev.exit:                             ; preds = %_ZNK19QListSpecialMethodsI7QStringE4joinERKS0_.exit, %_ZN9QtPrivate8RefCount5derefEv.exit.i, %_ZN9QtPrivate8RefCount5derefEv.exit.thread2.i
  %16 = invoke noundef ptr @_ZN7QString16fromAscii_helperEPKci(ptr noundef nonnull @.str.21, i32 noundef 1)
          to label %17 unwind label %33

17:                                               ; preds = %_ZN7QStringD2Ev.exit
  store ptr %16, ptr %4, align 8
  %18 = invoke noundef ptr @_ZN7QString16fromAscii_helperEPKci(ptr noundef nonnull @.str.18, i32 noundef 0)
          to label %19 unwind label %35

19:                                               ; preds = %17
  store ptr %18, ptr %5, align 8
  %20 = invoke noundef nonnull align 8 dereferenceable(8) ptr @_ZN7QString7replaceERKS_S1_N2Qt15CaseSensitivityE(ptr noundef nonnull align 8 dereferenceable(8) %0, ptr noundef nonnull align 8 dereferenceable(8) %4, ptr noundef nonnull align 8 dereferenceable(8) %5, i32 noundef 1)
          to label %21 unwind label %37

21:                                               ; preds = %19
  %22 = call noundef nonnull align 8 dereferenceable(8) ptr @_ZN7QStringaSERKS_(ptr noundef nonnull align 8 dereferenceable(8) %0, ptr noundef nonnull align 8 dereferenceable(8) %20) #11
  %23 = load ptr, ptr %5, align 8
  %24 = load atomic i32, ptr %23 monotonic, align 4
  switch i32 %24, label %_ZN9QtPrivate8RefCount5derefEv.exit.i11 [
    i32 0, label %_ZN9QtPrivate8RefCount5derefEv.exit.thread2.i10
    i32 -1, label %_ZN7QStringD2Ev.exit15
  ]

_ZN9QtPrivate8RefCount5derefEv.exit.i11:          ; preds = %21
  %25 = atomicrmw sub ptr %23, i32 1 seq_cst, align 4
  %.not.i12 = icmp eq i32 %25, 1
  br i1 %.not.i12, label %_ZN9QtPrivate8RefCount5derefEv.exit._ZN9QtPrivate8RefCount5derefEv.exit.thread2_crit_edge.i13, label %_ZN7QStringD2Ev.exit15

_ZN9QtPrivate8RefCount5derefEv.exit._ZN9QtPrivate8RefCount5derefEv.exit.thread2_crit_edge.i13: ; preds = %_ZN9QtPrivate8RefCount5derefEv.exit.i11
  %.pre.i14 = load ptr, ptr %5, align 8
  br label %_ZN9QtPrivate8RefCount5derefEv.exit.thread2.i10

_ZN9QtPrivate8RefCount5derefEv.exit.thread2.i10:  ; preds = %_ZN9QtPrivate8RefCount5derefEv.exit._ZN9QtPrivate8RefCount5derefEv.exit.thread2_crit_edge.i13, %21
  %26 = phi ptr [ %.pre.i14, %_ZN9QtPrivate8RefCount5derefEv.exit._ZN9QtPrivate8RefCount5derefEv.exit.thread2_crit_edge.i13 ], [ %23, %21 ]
  call void @_ZN10QArrayData10deallocateEPS_mm(ptr noundef %26, i64 noundef 2, i64 noundef 8) #11
  br label %_ZN7QStringD2Ev.exit15

_ZN7QStringD2Ev.exit15:                           ; preds = %21, %_ZN9QtPrivate8RefCount5derefEv.exit.i11, %_ZN9QtPrivate8RefCount5derefEv.exit.thread2.i10
  %27 = load ptr, ptr %4, align 8
  %28 = load atomic i32, ptr %27 monotonic, align 4
  switch i32 %28, label %_ZN9QtPrivate8RefCount5derefEv.exit.i17 [
    i32 0, label %_ZN9QtPrivate8RefCount5derefEv.exit.thread2.i16
    i32 -1, label %_ZN7QStringD2Ev.exit21
  ]

_ZN9QtPrivate8RefCount5derefEv.exit.i17:          ; preds = %_ZN7QStringD2Ev.exit15
  %29 = atomicrmw sub ptr %27, i32 1 seq_cst, align 4
  %.not.i18 = icmp eq i32 %29, 1
  br i1 %.not.i18, label %_ZN9QtPrivate8RefCount5derefEv.exit._ZN9QtPrivate8RefCount5derefEv.exit.thread2_crit_edge.i19, label %_ZN7QStringD2Ev.exit21

_ZN9QtPrivate8RefCount5derefEv.exit._ZN9QtPrivate8RefCount5derefEv.exit.thread2_crit_edge.i19: ; preds = %_ZN9QtPrivate8RefCount5derefEv.exit.i17
  %.pre.i20 = load ptr, ptr %4, align 8
  br label %_ZN9QtPrivate8RefCount5derefEv.exit.thread2.i16

_ZN9QtPrivate8RefCount5derefEv.exit.thread2.i16:  ; preds = %_ZN9QtPrivate8RefCount5derefEv.exit._ZN9QtPrivate8RefCount5derefEv.exit.thread2_crit_edge.i19, %_ZN7QStringD2Ev.exit15
  %30 = phi ptr [ %.pre.i20, %_ZN9QtPrivate8RefCount5derefEv.exit._ZN9QtPrivate8RefCount5derefEv.exit.thread2_crit_edge.i19 ], [ %27, %_ZN7QStringD2Ev.exit15 ]
  call void @_ZN10QArrayData10deallocateEPS_mm(ptr noundef %30, i64 noundef 2, i64 noundef 8) #11
  br label %_ZN7QStringD2Ev.exit21

_ZN7QStringD2Ev.exit21:                           ; preds = %_ZN7QStringD2Ev.exit15, %_ZN9QtPrivate8RefCount5derefEv.exit.i17, %_ZN9QtPrivate8RefCount5derefEv.exit.thread2.i16
  ret void

31:                                               ; preds = %2
  %32 = landingpad { ptr, i32 }
          cleanup
  br label %40

33:                                               ; preds = %_ZN7QStringD2Ev.exit
  %34 = landingpad { ptr, i32 }
          cleanup
  br label %40

35:                                               ; preds = %17
  %36 = landingpad { ptr, i32 }
          cleanup
  br label %39

37:                                               ; preds = %19
  %38 = landingpad { ptr, i32 }
          cleanup
  call void @_ZN7QStringD2Ev(ptr noundef nonnull align 8 dereferenceable(8) %5) #11
  br label %39

39:                                               ; preds = %37, %35
  %.pn = phi { ptr, i32 } [ %38, %37 ], [ %36, %35 ]
  call void @_ZN7QStringD2Ev(ptr noundef nonnull align 8 dereferenceable(8) %4) #11
  br label %40

40:                                               ; preds = %33, %39, %31
  %.sink = phi ptr [ %3, %31 ], [ %0, %39 ], [ %0, %33 ]
  %.pn.pn.pn = phi { ptr, i32 } [ %32, %31 ], [ %.pn, %39 ], [ %34, %33 ]
  call void @_ZN7QStringD2Ev(ptr noundef nonnull align 8 dereferenceable(8) %.sink) #11
  resume { ptr, i32 } %.pn.pn.pn
}